target datalayout = "e-m:e-p270:32:32-p271:32:32-p272:64:64-i64:64-i128:128-f80:128-n8:16:32:64-S128"
target triple = "x86_64-pc-linux-gnu"

%"struct.vcpkg::StringView" = type { ptr, i64 }

; Function Attrs: mustprogress uwtable
define dso_local void @_ZN5vcpkg6Checks19check_maybe_upgradeERKNS_8LineInfoEbNS_10StringViewE(ptr noundef nonnull align 8 dereferenceable(16) %0, i1 noundef zeroext %1, ptr %2, i64 %3) #0 {
  %5 = alloca %"struct.vcpkg::StringView", align 8
  %6 = alloca ptr, align 8
  %7 = alloca i8, align 1
  %8 = alloca %"struct.vcpkg::StringView", align 8
  %9 = getelementptr inbounds nuw { ptr, i64 }, ptr %5, i32 0, i32 0
  store ptr %2, ptr %9, align 8
  %10 = getelementptr inbounds nuw { ptr, i64 }, ptr %5, i32 0, i32 1
  store i64 %3, ptr %10, align 8
  store ptr %0, ptr %6, align 8, !tbaa !4
  %11 = zext i1 %1 to i8
  store i8 %11, ptr %7, align 1, !tbaa !22
  %12 = load i8, ptr %7, align 1, !tbaa !22, !range !26, !noundef !27
  %13 = trunc i8 %12 to i1
  br i1 %13, label %20, label %14

14:                                               ; preds = %4
  %15 = load ptr, ptr %6, align 8, !tbaa !4
  call void @llvm.memcpy.p0.p0.i64(ptr align 8 %8, ptr align 8 %5, i64 16, i1 false), !tbaa.struct !33
  %16 = getelementptr inbounds nuw { ptr, i64 }, ptr %8, i32 0, i32 0
  %17 = load ptr, ptr %16, align 8
  %18 = getelementptr inbounds nuw { ptr, i64 }, ptr %8, i32 0, i32 1
  %19 = load i64, ptr %18, align 8
  call void @_ZN5vcpkg6Checks18exit_maybe_upgradeERKNS_8LineInfoENS_10StringViewE(ptr noundef nonnull align 8 dereferenceable(16) %15, ptr %17, i64 %19) #20
  unreachable

20:                                               ; preds = %4
  ret void
}