; Function Attrs: mustprogress uwtable
define dso_local void @_ZN5vcpkg6Checks19check_maybe_upgradeERKNS_8LineInfoEbNS_10StringViewE(ptr noundef nonnull align 8 dereferenceable(16) %0, i1 noundef zeroext %1, ptr %2, i64 %3) local_unnamed_addr #0 {
  br i1 %1, label %6, label %5

5:                                                ; preds = %4
  tail call void @_ZN5vcpkg6Checks18exit_maybe_upgradeERKNS_8LineInfoENS_10StringViewE(ptr noundef nonnull align 8 dereferenceable(16) %0, ptr %2, i64 %3) #23
  unreachable

6:                                                ; preds = %4
  ret void
}